target datalayout = "e-m:e-p270:32:32-p271:32:32-p272:64:64-i64:64-i128:128-f80:128-n8:16:32:64-S128"
target triple = "x86_64-pc-linux-gnu"

%struct.ARKodeARKStepMemRec = type { ptr, ptr, i32, i32, i32, i32, i32, i32, ptr, ptr, ptr, ptr, ptr, ptr, i32, i32, i32, i32, ptr, ptr, ptr, ptr, i32, ptr, double, double, double, double, i32, double, double, double, double, double, double, i32, i64, i32, i32, i32, ptr, ptr, ptr, ptr, ptr, ptr, i32, ptr, ptr, ptr, ptr, ptr, ptr, i32, i32, i64, i64, i64, i64, i64, ptr, ptr, i32, i32, i32, double, double, ptr, i32, ptr, ptr }
%struct.ARKodeMemRec = type { ptr, double, ptr, i32, i32, double, double, ptr, i32, double, ptr, i32, i32, ptr, ptr, i32, ptr, ptr, i32, ptr, ptr, ptr, ptr, ptr, ptr, ptr, ptr, ptr, ptr, ptr, ptr, ptr, ptr, ptr, i32, ptr, ptr, i32, ptr, i32, ptr, ptr, ptr, ptr, ptr, ptr, ptr, ptr, ptr, ptr, ptr, ptr, ptr, ptr, ptr, ptr, ptr, ptr, ptr, ptr, ptr, ptr, ptr, ptr, ptr, ptr, i32, ptr, ptr, ptr, ptr, ptr, ptr, ptr, i32, ptr, ptr, ptr, i32, ptr, ptr, ptr, ptr, ptr, ptr, ptr, i32, i32, i32, i32, double, double, double, double, double, double, double, double, double, double, i32, ptr, i64, i32, i32, i32, i32, i64, i64, i32, i64, i64, i64, i64, i64, i64, i64, double, double, double, double, double, i32, double, double, i32, i32, i32, i32, i32, i32, i32, i32, ptr, i32, ptr, ptr, ptr, ptr, i32, i32, i32 }

@__func__.arkStep_NlsLSolve = private unnamed_addr constant [18 x i8] c"arkStep_NlsLSolve\00", align 1

; Function Attrs: nounwind uwtable
define i32 @arkStep_NlsLSolve(ptr noundef %0, ptr noundef %1) #0 {
  %3 = alloca i32, align 4
  %4 = alloca ptr, align 8
  %5 = alloca ptr, align 8
  %6 = alloca ptr, align 8
  %7 = alloca ptr, align 8
  %8 = alloca i32, align 4
  %9 = alloca i32, align 4
  %10 = alloca i32, align 4
  store ptr %0, ptr %4, align 8, !tbaa !34
  store ptr %1, ptr %5, align 8, !tbaa !36
  call void @llvm.lifetime.start.p0(i64 8, ptr %6) #4
  call void @llvm.lifetime.start.p0(i64 8, ptr %7) #4
  call void @llvm.lifetime.start.p0(i64 4, ptr %8) #4
  call void @llvm.lifetime.start.p0(i64 4, ptr %9) #4
  %11 = load ptr, ptr %5, align 8, !tbaa !36
  %12 = call i32 @arkStep_AccessARKODEStepMem(ptr noundef %11, ptr noundef @__func__.arkStep_NlsLSolve, ptr noundef %6, ptr noundef %7)
  store i32 %12, ptr %8, align 4, !tbaa !10
  %13 = load i32, ptr %8, align 4, !tbaa !10
  %14 = icmp ne i32 %13, 0
  br i1 %14, label %15, label %17

15:                                               ; preds = %2
  %16 = load i32, ptr %8, align 4, !tbaa !10
  store i32 %16, ptr %3, align 4
  store i32 1, ptr %10, align 4
  br label %59

17:                                               ; preds = %2
  %18 = load ptr, ptr %7, align 8, !tbaa !20
  %19 = getelementptr inbounds nuw %struct.ARKodeARKStepMemRec, ptr %18, i32 0, i32 21
  %20 = load ptr, ptr %19, align 8, !tbaa !22
  %21 = call i32 @SUNNonlinSolGetCurIter(ptr noundef %20, ptr noundef %9)
  store i32 %21, ptr %8, align 4, !tbaa !10
  %22 = load i32, ptr %8, align 4, !tbaa !10
  %23 = icmp ne i32 %22, 0
  br i1 %23, label %24, label %25

24:                                               ; preds = %17
  store i32 -32, ptr %3, align 4
  store i32 1, ptr %10, align 4
  br label %59

25:                                               ; preds = %17
  %26 = load ptr, ptr %7, align 8, !tbaa !20
  %27 = getelementptr inbounds nuw %struct.ARKodeARKStepMemRec, ptr %26, i32 0, i32 43
  %28 = load ptr, ptr %27, align 8, !tbaa !69
  %29 = load ptr, ptr %6, align 8, !tbaa !3
  %30 = load ptr, ptr %4, align 8, !tbaa !34
  %31 = load ptr, ptr %6, align 8, !tbaa !3
  %32 = getelementptr inbounds nuw %struct.ARKodeMemRec, ptr %31, i32 0, i32 98
  %33 = load double, ptr %32, align 8, !tbaa !55
  %34 = load ptr, ptr %6, align 8, !tbaa !3
  %35 = getelementptr inbounds nuw %struct.ARKodeMemRec, ptr %34, i32 0, i32 75
  %36 = load ptr, ptr %35, align 8, !tbaa !46
  %37 = load ptr, ptr %7, align 8, !tbaa !20
  %38 = getelementptr inbounds nuw %struct.ARKodeARKStepMemRec, ptr %37, i32 0, i32 9
  %39 = load ptr, ptr %38, align 8, !tbaa !53
  %40 = load ptr, ptr %7, align 8, !tbaa !20
  %41 = getelementptr inbounds nuw %struct.ARKodeARKStepMemRec, ptr %40, i32 0, i32 16
  %42 = load i32, ptr %41, align 8, !tbaa !54
  %43 = sext i32 %42 to i64
  %44 = getelementptr inbounds ptr, ptr %39, i64 %43
  %45 = load ptr, ptr %44, align 8, !tbaa !34
  %46 = load ptr, ptr %7, align 8, !tbaa !20
  %47 = getelementptr inbounds nuw %struct.ARKodeARKStepMemRec, ptr %46, i32 0, i32 33
  %48 = load double, ptr %47, align 8, !tbaa !83
  %49 = load i32, ptr %9, align 4, !tbaa !10
  %50 = call i32 %28(ptr noundef %29, ptr noundef %30, double noundef %33, ptr noundef %36, ptr noundef %45, double noundef %48, i32 noundef %49)
  store i32 %50, ptr %8, align 4, !tbaa !10
  %51 = load i32, ptr %8, align 4, !tbaa !10
  %52 = icmp slt i32 %51, 0
  br i1 %52, label %53, label %54

53:                                               ; preds = %25
  store i32 -7, ptr %3, align 4
  store i32 1, ptr %10, align 4
  br label %59

54:                                               ; preds = %25
  %55 = load i32, ptr %8, align 4, !tbaa !10
  %56 = icmp sgt i32 %55, 0
  br i1 %56, label %57, label %58

57:                                               ; preds = %54
  store i32 4, ptr %3, align 4
  store i32 1, ptr %10, align 4
  br label %59

58:                                               ; preds = %54
  store i32 0, ptr %3, align 4
  store i32 1, ptr %10, align 4
  br label %59

59:                                               ; preds = %58, %57, %53, %24, %15
  call void @llvm.lifetime.end.p0(i64 4, ptr %9) #4
  call void @llvm.lifetime.end.p0(i64 4, ptr %8) #4
  call void @llvm.lifetime.end.p0(i64 8, ptr %7) #4
  call void @llvm.lifetime.end.p0(i64 8, ptr %6) #4
  %60 = load i32, ptr %3, align 4
  ret i32 %60
}