; Function Attrs: nounwind uwtable
define i32 @arkStep_NlsLSolve(ptr noundef %0, ptr noundef %1) #0 {
  %3 = alloca ptr, align 8
  %4 = alloca ptr, align 8
  %5 = alloca i32, align 4
  call void @llvm.lifetime.start.p0(i64 8, ptr nonnull %3) #5
  call void @llvm.lifetime.start.p0(i64 8, ptr nonnull %4) #5
  call void @llvm.lifetime.start.p0(i64 4, ptr nonnull %5) #5
  %6 = call i32 @arkStep_AccessARKODEStepMem(ptr noundef %1, ptr noundef nonnull @__func__.arkStep_NlsLSolve, ptr noundef nonnull %3, ptr noundef nonnull %4) #5
  %.not = icmp eq i32 %6, 0
  br i1 %.not, label %7, label %34

7:                                                ; preds = %2
  %8 = load ptr, ptr %4, align 8, !tbaa !14
  %9 = getelementptr inbounds nuw i8, ptr %8, i64 128
  %10 = load ptr, ptr %9, align 8, !tbaa !16
  %11 = call i32 @SUNNonlinSolGetCurIter(ptr noundef %10, ptr noundef nonnull %5) #5
  %.not9 = icmp eq i32 %11, 0
  br i1 %.not9, label %12, label %34

12:                                               ; preds = %7
  %13 = load ptr, ptr %4, align 8, !tbaa !14
  %14 = getelementptr inbounds nuw i8, ptr %13, i64 296
  %15 = load ptr, ptr %14, align 8, !tbaa !64
  %16 = load ptr, ptr %3, align 8, !tbaa !40
  %17 = getelementptr inbounds nuw i8, ptr %16, i64 752
  %18 = load double, ptr %17, align 8, !tbaa !52
  %19 = getelementptr inbounds nuw i8, ptr %16, i64 584
  %20 = load ptr, ptr %19, align 8, !tbaa !42
  %21 = getelementptr inbounds nuw i8, ptr %13, i64 48
  %22 = load ptr, ptr %21, align 8, !tbaa !49
  %23 = getelementptr inbounds nuw i8, ptr %13, i64 96
  %24 = load i32, ptr %23, align 8, !tbaa !50
  %25 = sext i32 %24 to i64
  %26 = getelementptr inbounds ptr, ptr %22, i64 %25
  %27 = load ptr, ptr %26, align 8, !tbaa !51
  %28 = getelementptr inbounds nuw i8, ptr %13, i64 224
  %29 = load double, ptr %28, align 8, !tbaa !76
  %30 = load i32, ptr %5, align 4, !tbaa !31
  %31 = call i32 %15(ptr noundef %16, ptr noundef %0, double noundef %18, ptr noundef %20, ptr noundef %27, double noundef %29, i32 noundef %30) #5
  %32 = icmp slt i32 %31, 0
  br i1 %32, label %34, label %33

33:                                               ; preds = %12
  %.not10 = icmp eq i32 %31, 0
  %. = select i1 %.not10, i32 0, i32 4
  br label %34

34:                                               ; preds = %33, %12, %7, %2
  %.0 = phi i32 [ %6, %2 ], [ -32, %7 ], [ -7, %12 ], [ %., %33 ]
  call void @llvm.lifetime.end.p0(i64 4, ptr nonnull %5) #5
  call void @llvm.lifetime.end.p0(i64 8, ptr nonnull %4) #5
  call void @llvm.lifetime.end.p0(i64 8, ptr nonnull %3) #5
  ret i32 %.0
}